; Function Attrs: mustprogress uwtable
define hidden noundef zeroext i1 @_ZN2cv11large_kinfu14LargeKinfuImplINS_3MatEE6updateERKNS_11_InputArrayE(ptr noundef nonnull align 8 dereferenceable(372) %0, ptr noundef nonnull align 8 dereferenceable(24) %1) unnamed_addr #3 align 2 personality ptr @__gxx_personality_v0 {
  %3 = alloca %"class.std::__cxx11::basic_string", align 8
  %4 = alloca %"class.std::allocator.12", align 1
  %5 = alloca %"class.cv::Mat", align 8
  %6 = alloca %"class.cv::_OutputArray", align 8
  %7 = alloca %"class.cv::Mat", align 8
  %8 = tail call noundef zeroext i1 @_ZNK2cv11_InputArray5emptyEv(ptr noundef nonnull align 8 dereferenceable(24) %1)
  br i1 %8, label %.critedge, label %9

9:                                                ; preds = %2
  %10 = tail call i64 @_ZNK2cv11_InputArray4sizeEi(ptr noundef nonnull align 8 dereferenceable(24) %1, i32 noundef -1)
  %.sroa.0.0.extract.trunc = trunc i64 %10 to i32
  %.sroa.2.0.extract.shift = lshr i64 %10, 32
  %.sroa.2.0.extract.trunc = trunc nuw i64 %.sroa.2.0.extract.shift to i32
  %11 = getelementptr inbounds i8, ptr %0, i64 8
  %.val17 = load i32, ptr %11, align 8
  %12 = getelementptr inbounds i8, ptr %0, i64 12
  %.val18 = load i32, ptr %12, align 4
  %13 = icmp eq i32 %.val17, %.sroa.0.0.extract.trunc
  %14 = icmp eq i32 %.val18, %.sroa.2.0.extract.trunc
  %15 = select i1 %13, i1 %14, i1 false
  br i1 %15, label %23, label %.critedge

.critedge:                                        ; preds = %2, %9
  call void @_ZNSaIcEC1Ev(ptr noundef nonnull align 1 dereferenceable(1) %4) #23
  invoke void @_ZNSt7__cxx1112basic_stringIcSt11char_traitsIcESaIcEEC1EPKcRKS3_(ptr noundef nonnull align 8 dereferenceable(32) %3, ptr noundef nonnull @.str, ptr noundef nonnull align 1 dereferenceable(1) %4)
          to label %16 unwind label %18

16:                                               ; preds = %.critedge
  invoke void @_ZN2cv5errorEiRKNSt7__cxx1112basic_stringIcSt11char_traitsIcESaIcEEEPKcS9_i(i32 noundef -215, ptr noundef nonnull align 8 dereferenceable(32) %3, ptr noundef nonnull @__func__._ZN2cv11large_kinfu14LargeKinfuImplINS_3MatEE6updateERKNS_11_InputArrayE, ptr noundef nonnull @.str.2, i32 noundef 181) #24
          to label %17 unwind label %20

17:                                               ; preds = %16
  unreachable

18:                                               ; preds = %.critedge
  %19 = landingpad { ptr, i32 }
          cleanup
  br label %22

20:                                               ; preds = %16
  %21 = landingpad { ptr, i32 }
          cleanup
  call void @_ZNSt7__cxx1112basic_stringIcSt11char_traitsIcESaIcEED1Ev(ptr noundef nonnull align 8 dereferenceable(32) %3) #23
  br label %22

22:                                               ; preds = %20, %18
  %.pn = phi { ptr, i32 } [ %21, %20 ], [ %19, %18 ]
  call void @_ZNSaIcED1Ev(ptr noundef nonnull align 1 dereferenceable(1) %4) #23
  br label %49

23:                                               ; preds = %9
  call void @_ZN2cv3MatC1Ev(ptr noundef nonnull align 8 dereferenceable(96) %5) #23
  %24 = invoke noundef i32 @_ZNK2cv11_InputArray4kindEv(ptr noundef nonnull align 8 dereferenceable(24) %1)
          to label %25 unwind label %32

25:                                               ; preds = %23
  %26 = icmp eq i32 %24, 655360
  br i1 %26, label %27, label %36

27:                                               ; preds = %25
  %28 = getelementptr inbounds i8, ptr %6, i64 8
  %29 = getelementptr inbounds i8, ptr %6, i64 16
  store i64 0, ptr %29, align 8
  store i32 33619968, ptr %6, align 8
  store ptr %5, ptr %28, align 8
  invoke void @_ZNK2cv11_InputArray6copyToERKNS_12_OutputArrayE(ptr noundef nonnull align 8 dereferenceable(24) %1, ptr noundef nonnull align 8 dereferenceable(24) %6)
          to label %30 unwind label %34

30:                                               ; preds = %27
  %31 = invoke noundef zeroext i1 @_ZN2cv11large_kinfu14LargeKinfuImplINS_3MatEE7updateTERKS2_(ptr noundef nonnull align 8 dereferenceable(372) %0, ptr noundef nonnull align 8 dereferenceable(96) %5)
          to label %47 unwind label %32

32:                                               ; preds = %42, %39, %36, %23, %30
  %33 = landingpad { ptr, i32 }
          cleanup
  br label %48

34:                                               ; preds = %27
  %35 = landingpad { ptr, i32 }
          cleanup
  br label %48

36:                                               ; preds = %25
  %37 = invoke noundef i32 @_ZNK2cv11_InputArray4kindEv(ptr noundef nonnull align 8 dereferenceable(24) %1)
          to label %.noexc unwind label %32

.noexc:                                           ; preds = %36
  %38 = icmp eq i32 %37, 65536
  br i1 %38, label %39, label %42

39:                                               ; preds = %.noexc
  %40 = getelementptr inbounds i8, ptr %1, i64 8
  %41 = load ptr, ptr %40, align 8, !noalias !22
  invoke void @_ZN2cv3MatC1ERKS0_(ptr noundef nonnull align 8 dereferenceable(96) %7, ptr noundef nonnull align 8 dereferenceable(96) %41)
          to label %_ZNK2cv11_InputArray6getMatEi.exit unwind label %32

42:                                               ; preds = %.noexc
  invoke void @_ZNK2cv11_InputArray7getMat_Ei(ptr dead_on_unwind nonnull writable sret(%"class.cv::Mat") align 8 %7, ptr noundef nonnull align 8 dereferenceable(24) %1, i32 noundef -1)
          to label %_ZNK2cv11_InputArray6getMatEi.exit unwind label %32

_ZNK2cv11_InputArray6getMatEi.exit:               ; preds = %39, %42
  %43 = invoke noundef zeroext i1 @_ZN2cv11large_kinfu14LargeKinfuImplINS_3MatEE7updateTERKS2_(ptr noundef nonnull align 8 dereferenceable(372) %0, ptr noundef nonnull align 8 dereferenceable(96) %7)
          to label %44 unwind label %45

44:                                               ; preds = %_ZNK2cv11_InputArray6getMatEi.exit
  call void @_ZN2cv3MatD1Ev(ptr noundef nonnull align 8 dereferenceable(96) %7) #23
  br label %47

45:                                               ; preds = %_ZNK2cv11_InputArray6getMatEi.exit
  %46 = landingpad { ptr, i32 }
          cleanup
  call void @_ZN2cv3MatD1Ev(ptr noundef nonnull align 8 dereferenceable(96) %7) #23
  br label %48

47:                                               ; preds = %30, %44
  %.011 = phi i1 [ %43, %44 ], [ %31, %30 ]
  call void @_ZN2cv3MatD1Ev(ptr noundef nonnull align 8 dereferenceable(96) %5) #23
  ret i1 %.011

48:                                               ; preds = %45, %34, %32
  %.pn13 = phi { ptr, i32 } [ %33, %32 ], [ %35, %34 ], [ %46, %45 ]
  call void @_ZN2cv3MatD1Ev(ptr noundef nonnull align 8 dereferenceable(96) %5) #23
  br label %49

49:                                               ; preds = %48, %22
  %.pn13.pn = phi { ptr, i32 } [ %.pn13, %48 ], [ %.pn, %22 ]
  resume { ptr, i32 } %.pn13.pn
}